target datalayout = "e-m:e-p270:32:32-p271:32:32-p272:64:64-i64:64-i128:128-f80:128-n8:16:32:64-S128"
target triple = "x86_64-pc-linux-gnu"

%struct.forward = type { %struct.slurm_node_alias_addrs_t, i16, i16, ptr, i32, i16, i16 }
%struct.slurm_node_alias_addrs_t = type { i64, ptr, ptr, i32, ptr }
%struct.sockaddr_storage = type { i16, [118 x i8], i64 }
%struct.slurm_msg = type { %struct.sockaddr_storage, ptr, i32, i32, i32, i8, i32, i8, i32, ptr, ptr, i32, ptr, ptr, i16, i8, i16, i16, %struct.forward, ptr, %struct.sockaddr_storage, ptr }

; Function Attrs: nounwind uwtable
define internal void @_pack_node_alias_addrs_resp_msg(ptr noundef %0, ptr noundef %1) #0 {
  %3 = alloca ptr, align 8
  %4 = alloca ptr, align 8
  %5 = alloca ptr, align 8
  %6 = alloca ptr, align 8
  %7 = alloca i32, align 4
  store ptr %0, ptr %3, align 8
  store ptr %1, ptr %4, align 8
  call void @llvm.lifetime.start.p0(i64 8, ptr %5) #6
  %8 = load ptr, ptr %3, align 8
  %9 = getelementptr inbounds nuw %struct.slurm_msg, ptr %8, i32 0, i32 13
  %10 = load ptr, ptr %9, align 8
  store ptr %10, ptr %5, align 8
  %11 = load ptr, ptr %3, align 8
  %12 = getelementptr inbounds nuw %struct.slurm_msg, ptr %11, i32 0, i32 17
  %13 = load i16, ptr %12, align 2
  %14 = zext i16 %13 to i32
  %15 = icmp sge i32 %14, 10240
  br i1 %15, label %16, label %36

16:                                               ; preds = %2
  call void @llvm.lifetime.start.p0(i64 8, ptr %6) #6
  %17 = load ptr, ptr %5, align 8
  %18 = load ptr, ptr %3, align 8
  %19 = getelementptr inbounds nuw %struct.slurm_msg, ptr %18, i32 0, i32 17
  %20 = load i16, ptr %19, align 2
  %21 = call ptr @create_net_cred(ptr noundef %17, i16 noundef zeroext %20)
  store ptr %21, ptr %6, align 8
  br label %22

22:                                               ; preds = %16
  call void @llvm.lifetime.start.p0(i64 4, ptr %7) #6
  store i32 0, ptr %7, align 4
  %23 = load ptr, ptr %6, align 8
  %24 = icmp ne ptr %23, null
  br i1 %24, label %25, label %30

25:                                               ; preds = %22
  %26 = load ptr, ptr %6, align 8
  %27 = call i64 @strlen(ptr noundef %26) #7
  %28 = trunc i64 %27 to i32
  %29 = add i32 %28, 1
  store i32 %29, ptr %7, align 4
  br label %30

30:                                               ; preds = %25, %22
  %31 = load ptr, ptr %6, align 8
  %32 = load i32, ptr %7, align 4
  %33 = load ptr, ptr %4, align 8
  call void @packmem(ptr noundef %31, i32 noundef %32, ptr noundef %33)
  call void @llvm.lifetime.end.p0(i64 4, ptr %7) #6
  br label %34

34:                                               ; preds = %30
  br label %35

35:                                               ; preds = %34
  call void @slurm_xfree(ptr noundef %6)
  call void @llvm.lifetime.end.p0(i64 8, ptr %6) #6
  br label %36

36:                                               ; preds = %35, %2
  call void @llvm.lifetime.end.p0(i64 8, ptr %5) #6
  ret void
}