; Function Attrs: nounwind uwtable
define internal fastcc void @_pack_node_alias_addrs_resp_msg(ptr noundef readonly captures(none) %0, ptr noundef %1) unnamed_addr #0 {
  %3 = alloca ptr, align 8
  %4 = getelementptr inbounds nuw i8, ptr %0, i64 214
  %5 = load i16, ptr %4, align 2
  %6 = icmp ugt i16 %5, 10239
  br i1 %6, label %7, label %16

7:                                                ; preds = %2
  %8 = getelementptr inbounds nuw i8, ptr %0, i64 200
  %9 = load ptr, ptr %8, align 8
  call void @llvm.lifetime.start.p0(i64 8, ptr nonnull %3) #7
  %10 = tail call ptr @create_net_cred(ptr noundef %9, i16 noundef zeroext %5) #7
  store ptr %10, ptr %3, align 8
  %.not = icmp eq ptr %10, null
  br i1 %.not, label %15, label %11

11:                                               ; preds = %7
  %12 = tail call i64 @strlen(ptr noundef nonnull dereferenceable(1) %10) #8
  %13 = trunc i64 %12 to i32
  %14 = add i32 %13, 1
  br label %15

15:                                               ; preds = %11, %7
  %.0 = phi i32 [ %14, %11 ], [ 0, %7 ]
  tail call void @packmem(ptr noundef %10, i32 noundef %.0, ptr noundef %1) #7
  call void @slurm_xfree(ptr noundef nonnull %3) #7
  call void @llvm.lifetime.end.p0(i64 8, ptr nonnull %3) #7
  br label %16

16:                                               ; preds = %15, %2
  ret void
}